target datalayout = "e-m:e-p270:32:32-p271:32:32-p272:64:64-i64:64-i128:128-f80:128-n8:16:32:64-S128"
target triple = "x86_64-pc-linux-gnu"

%"struct.gmx::IMDSocket" = type { %struct.sockaddr_in, i32 }
%struct.sockaddr_in = type { i16, i16, %struct.in_addr, [8 x i8] }
%struct.in_addr = type { i32 }

@.str = private unnamed_addr constant [5 x i8] c"sock\00", align 1
@.str.1 = private unnamed_addr constant [123 x i8] c"generated/home/dtcxzyw/WorkSpace/Projects/compilers/llvm-opt-benchmark/bench/gromacs/gromacs/src/gromacs/imd/imdsocket.cpp\00", align 1

; Function Attrs: inlinehint mustprogress uwtable
define internal void @_ZL14gmx_sfree_implIN3gmx9IMDSocketEEvPKcS3_iPT_(ptr noundef %0, ptr noundef %1, i32 noundef %2, ptr noundef %3) #3 {
  %5 = alloca ptr, align 8
  %6 = alloca ptr, align 8
  %7 = alloca i32, align 4
  %8 = alloca ptr, align 8
  store ptr %0, ptr %5, align 8, !tbaa !16
  store ptr %1, ptr %6, align 8, !tbaa !16
  store i32 %2, ptr %7, align 4, !tbaa !15
  store ptr %3, ptr %8, align 8, !tbaa !4
  %9 = load ptr, ptr %5, align 8, !tbaa !16
  %10 = load ptr, ptr %6, align 8, !tbaa !16
  %11 = load i32, ptr %7, align 4, !tbaa !15
  %12 = load ptr, ptr %8, align 8, !tbaa !4
  call void @_Z9save_freePKcS0_iPv(ptr noundef %9, ptr noundef %10, i32 noundef %11, ptr noundef %12)
  ret void
}

; Function Attrs: mustprogress uwtable
define noundef i32 @_ZN3gmx15imdsock_destroyEPNS_9IMDSocketE(ptr noundef %0) #1 {
  %2 = alloca i32, align 4
  %3 = alloca ptr, align 8
  %4 = alloca i32, align 4
  %5 = alloca i32, align 4
  store ptr %0, ptr %3, align 8, !tbaa !4
  call void @llvm.lifetime.start.p0(i64 4, ptr %4) #10
  store i32 -1, ptr %4, align 4, !tbaa !15
  %6 = load ptr, ptr %3, align 8, !tbaa !4
  %7 = icmp eq ptr %6, null
  br i1 %7, label %8, label %9

8:                                                ; preds = %1
  store i32 1, ptr %2, align 4
  store i32 1, ptr %5, align 4
  br label %22

9:                                                ; preds = %1
  %10 = load ptr, ptr %3, align 8, !tbaa !4
  %11 = getelementptr inbounds nuw %"struct.gmx::IMDSocket", ptr %10, i32 0, i32 1
  %12 = load i32, ptr %11, align 4, !tbaa !9
  %13 = call i32 @close(i32 noundef %12)
  store i32 %13, ptr %4, align 4, !tbaa !15
  %14 = load i32, ptr %4, align 4, !tbaa !15
  %15 = icmp eq i32 %14, -1
  br i1 %15, label %16, label %21

16:                                               ; preds = %9
  %17 = load ptr, ptr %3, align 8, !tbaa !4
  call void @_ZL14gmx_sfree_implIN3gmx9IMDSocketEEvPKcS3_iPT_(ptr noundef @.str, ptr noundef @.str.1, i32 noundef 390, ptr noundef %17)
  %18 = call ptr @__errno_location() #11
  %19 = load i32, ptr %18, align 4, !tbaa !15
  %20 = call ptr @strerror(i32 noundef %19) #10
  call void @_ZN3gmxL15print_IMD_errorEPKciPc(ptr noundef @.str.1, i32 noundef 391, ptr noundef %20)
  store i32 0, ptr %2, align 4
  store i32 1, ptr %5, align 4
  br label %22

21:                                               ; preds = %9
  store i32 1, ptr %2, align 4
  store i32 1, ptr %5, align 4
  br label %22

22:                                               ; preds = %21, %16, %8
  call void @llvm.lifetime.end.p0(i64 4, ptr %4) #10
  %23 = load i32, ptr %2, align 4
  ret i32 %23
}