; Function Attrs: mustprogress uwtable
define noundef range(i32 0, 2) i32 @_ZN3gmx15imdsock_destroyEPNS_9IMDSocketE(ptr noundef %0) local_unnamed_addr #1 {
  %2 = icmp eq ptr %0, null
  br i1 %2, label %12, label %3

3:                                                ; preds = %1
  %4 = getelementptr inbounds nuw i8, ptr %0, i64 16
  %5 = load i32, ptr %4, align 4, !tbaa !4
  %6 = tail call i32 @close(i32 noundef %5)
  %7 = icmp eq i32 %6, -1
  br i1 %7, label %8, label %12

8:                                                ; preds = %3
  tail call void @_Z9save_freePKcS0_iPv(ptr noundef nonnull @.str, ptr noundef nonnull @.str.1, i32 noundef 390, ptr noundef nonnull %0)
  %9 = tail call ptr @__errno_location() #15
  %10 = load i32, ptr %9, align 4, !tbaa !12
  %11 = tail call ptr @strerror(i32 noundef %10) #14
  tail call fastcc void @_ZN3gmxL15print_IMD_errorEPKciPc(i32 noundef 391, ptr noundef %11)
  br label %12

12:                                               ; preds = %3, %1, %8
  %.0 = phi i32 [ 0, %8 ], [ 1, %1 ], [ 1, %3 ]
  ret i32 %.0
}